target datalayout = "e-m:e-p270:32:32-p271:32:32-p272:64:64-i64:64-i128:128-f80:128-n8:16:32:64-S128"
target triple = "x86_64-pc-linux-gnu"

%"class.icu_77::RuleBasedTimeZone" = type <{ %"class.icu_77::BasicTimeZone", ptr, ptr, ptr, ptr, i8, [7 x i8] }>
%"class.icu_77::BasicTimeZone" = type { %"class.icu_77::TimeZone" }
%"class.icu_77::TimeZone" = type { %"class.icu_77::UObject", %"class.icu_77::UnicodeString" }
%"class.icu_77::UObject" = type { ptr }
%"class.icu_77::UnicodeString" = type { %"class.icu_77::Replaceable", %"union.icu_77::UnicodeString::StackBufferOrFields" }
%"class.icu_77::Replaceable" = type { %"class.icu_77::UObject" }
%"union.icu_77::UnicodeString::StackBufferOrFields" = type { %struct.anon.0, [32 x i8] }
%struct.anon.0 = type { i16, i32, i32, ptr }
%"struct.icu_77::Transition" = type { double, ptr, ptr }
%"class.icu_77::UVector" = type { %"class.icu_77::UObject", i32, i32, ptr, ptr, ptr }

; Function Attrs: inlinehint mustprogress nounwind uwtable
define linkonce_odr noundef i32 @_ZNK6icu_777UVector4sizeEv(ptr noundef nonnull align 8 dereferenceable(40) %0) #6 comdat align 2 {
  %2 = alloca ptr, align 8
  store ptr %0, ptr %2, align 8, !tbaa !28
  %3 = load ptr, ptr %2, align 8
  %4 = getelementptr inbounds nuw %"class.icu_77::UVector", ptr %3, i32 0, i32 1
  %5 = load i32, ptr %4, align 8, !tbaa !69
  ret i32 %5
}

; Function Attrs: inlinehint mustprogress nounwind uwtable
define internal noundef signext i8 @_ZL9U_FAILURE10UErrorCode(i32 noundef %0) #6 {
  %2 = alloca i32, align 4
  store i32 %0, ptr %2, align 4, !tbaa !26
  %3 = load i32, ptr %2, align 4, !tbaa !26
  %4 = icmp sgt i32 %3, 0
  %5 = zext i1 %4 to i8
  ret i8 %5
}

; Function Attrs: mustprogress uwtable
define void @_ZNK6icu_7717RuleBasedTimeZone17getOffsetInternalEdaiiRiS1_R10UErrorCode(ptr noundef nonnull align 8 dereferenceable(105) %0, double noundef %1, i8 noundef signext %2, i32 noundef %3, i32 noundef %4, ptr noundef nonnull align 4 dereferenceable(4) %5, ptr noundef nonnull align 4 dereferenceable(4) %6, ptr noundef nonnull align 4 dereferenceable(4) %7) #1 align 2 {
  %9 = alloca ptr, align 8
  %10 = alloca double, align 8
  %11 = alloca i8, align 1
  %12 = alloca i32, align 4
  %13 = alloca i32, align 4
  %14 = alloca ptr, align 8
  %15 = alloca ptr, align 8
  %16 = alloca ptr, align 8
  %17 = alloca ptr, align 8
  %18 = alloca double, align 8
  %19 = alloca i32, align 4
  %20 = alloca double, align 8
  store ptr %0, ptr %9, align 8, !tbaa !3
  store double %1, ptr %10, align 8, !tbaa !36
  store i8 %2, ptr %11, align 1, !tbaa !43
  store i32 %3, ptr %12, align 4, !tbaa !29
  store i32 %4, ptr %13, align 4, !tbaa !29
  store ptr %5, ptr %14, align 8, !tbaa !94
  store ptr %6, ptr %15, align 8, !tbaa !94
  store ptr %7, ptr %16, align 8, !tbaa !33
  %21 = load ptr, ptr %9, align 8
  %22 = load ptr, ptr %14, align 8, !tbaa !94
  store i32 0, ptr %22, align 4, !tbaa !29
  %23 = load ptr, ptr %15, align 8, !tbaa !94
  store i32 0, ptr %23, align 4, !tbaa !29
  %24 = load ptr, ptr %16, align 8, !tbaa !33
  %25 = load i32, ptr %24, align 4, !tbaa !26
  %26 = call noundef signext i8 @_ZL9U_FAILURE10UErrorCode(i32 noundef %25)
  %27 = icmp ne i8 %26, 0
  br i1 %27, label %28, label %29

28:                                               ; preds = %8
  br label %132

29:                                               ; preds = %8
  %30 = getelementptr inbounds nuw %"class.icu_77::RuleBasedTimeZone", ptr %21, i32 0, i32 5
  %31 = load i8, ptr %30, align 8, !tbaa !25
  %32 = icmp ne i8 %31, 0
  br i1 %32, label %35, label %33

33:                                               ; preds = %29
  %34 = load ptr, ptr %16, align 8, !tbaa !33
  store i32 27, ptr %34, align 4, !tbaa !26
  br label %132

35:                                               ; preds = %29
  call void @llvm.lifetime.start.p0(i64 8, ptr %17) #12
  store ptr null, ptr %17, align 8, !tbaa !34
  %36 = getelementptr inbounds nuw %"class.icu_77::RuleBasedTimeZone", ptr %21, i32 0, i32 4
  %37 = load ptr, ptr %36, align 8, !tbaa !24
  %38 = icmp eq ptr %37, null
  br i1 %38, label %39, label %42

39:                                               ; preds = %35
  %40 = getelementptr inbounds nuw %"class.icu_77::RuleBasedTimeZone", ptr %21, i32 0, i32 1
  %41 = load ptr, ptr %40, align 8, !tbaa !14
  store ptr %41, ptr %17, align 8, !tbaa !34
  br label %121

42:                                               ; preds = %35
  call void @llvm.lifetime.start.p0(i64 8, ptr %18) #12
  %43 = getelementptr inbounds nuw %"class.icu_77::RuleBasedTimeZone", ptr %21, i32 0, i32 4
  %44 = load ptr, ptr %43, align 8, !tbaa !24
  %45 = call noundef ptr @_ZNK6icu_777UVector9elementAtEi(ptr noundef nonnull align 8 dereferenceable(40) %44, i32 noundef 0)
  %46 = load i8, ptr %11, align 1, !tbaa !43
  %47 = load i32, ptr %12, align 4, !tbaa !29
  %48 = load i32, ptr %13, align 4, !tbaa !29
  %49 = call noundef double @_ZNK6icu_7717RuleBasedTimeZone17getTransitionTimeEPNS_10TransitionEaii(ptr noundef nonnull align 8 dereferenceable(105) %21, ptr noundef %45, i8 noundef signext %46, i32 noundef %47, i32 noundef %48)
  store double %49, ptr %18, align 8, !tbaa !36
  %50 = load double, ptr %10, align 8, !tbaa !36
  %51 = load double, ptr %18, align 8, !tbaa !36
  %52 = fcmp olt double %50, %51
  br i1 %52, label %53, label %56

53:                                               ; preds = %42
  %54 = getelementptr inbounds nuw %"class.icu_77::RuleBasedTimeZone", ptr %21, i32 0, i32 1
  %55 = load ptr, ptr %54, align 8, !tbaa !14
  store ptr %55, ptr %17, align 8, !tbaa !34
  br label %120

56:                                               ; preds = %42
  call void @llvm.lifetime.start.p0(i64 4, ptr %19) #12
  %57 = getelementptr inbounds nuw %"class.icu_77::RuleBasedTimeZone", ptr %21, i32 0, i32 4
  %58 = load ptr, ptr %57, align 8, !tbaa !24
  %59 = call noundef i32 @_ZNK6icu_777UVector4sizeEv(ptr noundef nonnull align 8 dereferenceable(40) %58)
  %60 = sub nsw i32 %59, 1
  store i32 %60, ptr %19, align 4, !tbaa !29
  call void @llvm.lifetime.start.p0(i64 8, ptr %20) #12
  %61 = getelementptr inbounds nuw %"class.icu_77::RuleBasedTimeZone", ptr %21, i32 0, i32 4
  %62 = load ptr, ptr %61, align 8, !tbaa !24
  %63 = load i32, ptr %19, align 4, !tbaa !29
  %64 = call noundef ptr @_ZNK6icu_777UVector9elementAtEi(ptr noundef nonnull align 8 dereferenceable(40) %62, i32 noundef %63)
  %65 = load i8, ptr %11, align 1, !tbaa !43
  %66 = load i32, ptr %12, align 4, !tbaa !29
  %67 = load i32, ptr %13, align 4, !tbaa !29
  %68 = call noundef double @_ZNK6icu_7717RuleBasedTimeZone17getTransitionTimeEPNS_10TransitionEaii(ptr noundef nonnull align 8 dereferenceable(105) %21, ptr noundef %64, i8 noundef signext %65, i32 noundef %66, i32 noundef %67)
  store double %68, ptr %20, align 8, !tbaa !36
  %69 = load double, ptr %10, align 8, !tbaa !36
  %70 = load double, ptr %20, align 8, !tbaa !36
  %71 = fcmp ogt double %69, %70
  br i1 %71, label %72, label %93

72:                                               ; preds = %56
  %73 = getelementptr inbounds nuw %"class.icu_77::RuleBasedTimeZone", ptr %21, i32 0, i32 3
  %74 = load ptr, ptr %73, align 8, !tbaa !23
  %75 = icmp ne ptr %74, null
  br i1 %75, label %76, label %82

76:                                               ; preds = %72
  %77 = load double, ptr %10, align 8, !tbaa !36
  %78 = load i8, ptr %11, align 1, !tbaa !43
  %79 = load i32, ptr %12, align 4, !tbaa !29
  %80 = load i32, ptr %13, align 4, !tbaa !29
  %81 = call noundef ptr @_ZNK6icu_7717RuleBasedTimeZone15findRuleInFinalEdaii(ptr noundef nonnull align 8 dereferenceable(105) %21, double noundef %77, i8 noundef signext %78, i32 noundef %79, i32 noundef %80)
  store ptr %81, ptr %17, align 8, !tbaa !34
  br label %82

82:                                               ; preds = %76, %72
  %83 = load ptr, ptr %17, align 8, !tbaa !34
  %84 = icmp eq ptr %83, null
  br i1 %84, label %85, label %92

85:                                               ; preds = %82
  %86 = getelementptr inbounds nuw %"class.icu_77::RuleBasedTimeZone", ptr %21, i32 0, i32 4
  %87 = load ptr, ptr %86, align 8, !tbaa !24
  %88 = load i32, ptr %19, align 4, !tbaa !29
  %89 = call noundef ptr @_ZNK6icu_777UVector9elementAtEi(ptr noundef nonnull align 8 dereferenceable(40) %87, i32 noundef %88)
  %90 = getelementptr inbounds nuw %"struct.icu_77::Transition", ptr %89, i32 0, i32 2
  %91 = load ptr, ptr %90, align 8, !tbaa !50
  store ptr %91, ptr %17, align 8, !tbaa !34
  br label %92

92:                                               ; preds = %85, %82
  br label %119

93:                                               ; preds = %56
  br label %94

94:                                               ; preds = %109, %93
  %95 = load i32, ptr %19, align 4, !tbaa !29
  %96 = icmp sge i32 %95, 0
  br i1 %96, label %97, label %112

97:                                               ; preds = %94
  %98 = load double, ptr %10, align 8, !tbaa !36
  %99 = getelementptr inbounds nuw %"class.icu_77::RuleBasedTimeZone", ptr %21, i32 0, i32 4
  %100 = load ptr, ptr %99, align 8, !tbaa !24
  %101 = load i32, ptr %19, align 4, !tbaa !29
  %102 = call noundef ptr @_ZNK6icu_777UVector9elementAtEi(ptr noundef nonnull align 8 dereferenceable(40) %100, i32 noundef %101)
  %103 = load i8, ptr %11, align 1, !tbaa !43
  %104 = load i32, ptr %12, align 4, !tbaa !29
  %105 = load i32, ptr %13, align 4, !tbaa !29
  %106 = call noundef double @_ZNK6icu_7717RuleBasedTimeZone17getTransitionTimeEPNS_10TransitionEaii(ptr noundef nonnull align 8 dereferenceable(105) %21, ptr noundef %102, i8 noundef signext %103, i32 noundef %104, i32 noundef %105)
  %107 = fcmp oge double %98, %106
  br i1 %107, label %108, label %109

108:                                              ; preds = %97
  br label %112

109:                                              ; preds = %97
  %110 = load i32, ptr %19, align 4, !tbaa !29
  %111 = add nsw i32 %110, -1
  store i32 %111, ptr %19, align 4, !tbaa !29
  br label %94, !llvm.loop !96

112:                                              ; preds = %108, %94
  %113 = getelementptr inbounds nuw %"class.icu_77::RuleBasedTimeZone", ptr %21, i32 0, i32 4
  %114 = load ptr, ptr %113, align 8, !tbaa !24
  %115 = load i32, ptr %19, align 4, !tbaa !29
  %116 = call noundef ptr @_ZNK6icu_777UVector9elementAtEi(ptr noundef nonnull align 8 dereferenceable(40) %114, i32 noundef %115)
  %117 = getelementptr inbounds nuw %"struct.icu_77::Transition", ptr %116, i32 0, i32 2
  %118 = load ptr, ptr %117, align 8, !tbaa !50
  store ptr %118, ptr %17, align 8, !tbaa !34
  br label %119

119:                                              ; preds = %112, %92
  call void @llvm.lifetime.end.p0(i64 8, ptr %20) #12
  call void @llvm.lifetime.end.p0(i64 4, ptr %19) #12
  br label %120

120:                                              ; preds = %119, %53
  call void @llvm.lifetime.end.p0(i64 8, ptr %18) #12
  br label %121

121:                                              ; preds = %120, %39
  %122 = load ptr, ptr %17, align 8, !tbaa !34
  %123 = icmp ne ptr %122, null
  br i1 %123, label %124, label %131

124:                                              ; preds = %121
  %125 = load ptr, ptr %17, align 8, !tbaa !34
  %126 = call noundef i32 @_ZNK6icu_7712TimeZoneRule12getRawOffsetEv(ptr noundef nonnull align 8 dereferenceable(80) %125)
  %127 = load ptr, ptr %14, align 8, !tbaa !94
  store i32 %126, ptr %127, align 4, !tbaa !29
  %128 = load ptr, ptr %17, align 8, !tbaa !34
  %129 = call noundef i32 @_ZNK6icu_7712TimeZoneRule13getDSTSavingsEv(ptr noundef nonnull align 8 dereferenceable(80) %128)
  %130 = load ptr, ptr %15, align 8, !tbaa !94
  store i32 %129, ptr %130, align 4, !tbaa !29
  br label %131

131:                                              ; preds = %124, %121
  call void @llvm.lifetime.end.p0(i64 8, ptr %17) #12
  br label %132

132:                                              ; preds = %131, %33, %28
  ret void
}