; Function Attrs: mustprogress uwtable
define void @_ZNK6icu_7717RuleBasedTimeZone17getOffsetInternalEdaiiRiS1_R10UErrorCode(ptr noundef nonnull readonly align 8 captures(none) dereferenceable(105) %0, double noundef %1, i8 noundef signext %2, i32 noundef %3, i32 noundef %4, ptr noundef nonnull writeonly align 4 captures(none) dereferenceable(4) initializes((0, 4)) %5, ptr noundef nonnull writeonly align 4 captures(none) dereferenceable(4) initializes((0, 4)) %6, ptr noundef nonnull align 4 captures(none) dereferenceable(4) %7) local_unnamed_addr #1 align 2 {
  store i32 0, ptr %5, align 4, !tbaa !48
  store i32 0, ptr %6, align 4, !tbaa !48
  %9 = load i32, ptr %7, align 4, !tbaa !21
  %10 = icmp slt i32 %9, 1
  br i1 %10, label %11, label %58

11:                                               ; preds = %8
  %12 = getelementptr inbounds nuw i8, ptr %0, i64 104
  %13 = load i8, ptr %12, align 8, !tbaa !18
  %.not37 = icmp eq i8 %13, 0
  br i1 %.not37, label %14, label %15

14:                                               ; preds = %11
  store i32 27, ptr %7, align 4, !tbaa !21
  br label %58

15:                                               ; preds = %11
  %16 = getelementptr inbounds nuw i8, ptr %0, i64 96
  %17 = load ptr, ptr %16, align 8, !tbaa !17
  %18 = icmp eq ptr %17, null
  br i1 %18, label %19, label %21

19:                                               ; preds = %15
  %20 = getelementptr inbounds nuw i8, ptr %0, i64 72
  br label %55

21:                                               ; preds = %15
  %22 = tail call noundef ptr @_ZNK6icu_777UVector9elementAtEi(ptr noundef nonnull align 8 dereferenceable(40) %17, i32 noundef 0)
  %23 = tail call noundef double @_ZNK6icu_7717RuleBasedTimeZone17getTransitionTimeEPNS_10TransitionEaii(ptr nonnull align 8 poison, ptr noundef %22, i8 noundef signext %2, i32 noundef %3, i32 noundef %4)
  %24 = fcmp olt double %1, %23
  br i1 %24, label %25, label %27

25:                                               ; preds = %21
  %26 = getelementptr inbounds nuw i8, ptr %0, i64 72
  br label %55

27:                                               ; preds = %21
  %28 = load ptr, ptr %16, align 8, !tbaa !17
  %29 = getelementptr inbounds nuw i8, ptr %28, i64 8
  %30 = load i32, ptr %29, align 8, !tbaa !23
  %31 = add nsw i32 %30, -1
  %32 = tail call noundef ptr @_ZNK6icu_777UVector9elementAtEi(ptr noundef nonnull align 8 dereferenceable(40) %28, i32 noundef %31)
  %33 = tail call noundef double @_ZNK6icu_7717RuleBasedTimeZone17getTransitionTimeEPNS_10TransitionEaii(ptr nonnull align 8 poison, ptr noundef %32, i8 noundef signext %2, i32 noundef %3, i32 noundef %4)
  %34 = fcmp ogt double %1, %33
  br i1 %34, label %36, label %.preheader

.preheader:                                       ; preds = %27
  %35 = icmp sgt i32 %30, 0
  br i1 %35, label %.lr.ph, label %._crit_edge

36:                                               ; preds = %27
  %37 = getelementptr inbounds nuw i8, ptr %0, i64 88
  %38 = load ptr, ptr %37, align 8, !tbaa !20
  %.not38 = icmp eq ptr %38, null
  br i1 %.not38, label %.thread, label %39

39:                                               ; preds = %36
  %40 = tail call noundef ptr @_ZNK6icu_7717RuleBasedTimeZone15findRuleInFinalEdaii(ptr noundef nonnull align 8 dereferenceable(105) %0, double noundef %1, i8 noundef signext %2, i32 noundef %3, i32 noundef %4)
  %41 = icmp eq ptr %40, null
  br i1 %41, label %.thread, label %.thread41

.thread:                                          ; preds = %36, %39
  %42 = load ptr, ptr %16, align 8, !tbaa !17
  %43 = tail call noundef ptr @_ZNK6icu_777UVector9elementAtEi(ptr noundef nonnull align 8 dereferenceable(40) %42, i32 noundef %31)
  %44 = getelementptr inbounds nuw i8, ptr %43, i64 16
  br label %55

.lr.ph:                                           ; preds = %.preheader, %49
  %.03445 = phi i32 [ %50, %49 ], [ %31, %.preheader ]
  %45 = load ptr, ptr %16, align 8, !tbaa !17
  %46 = tail call noundef ptr @_ZNK6icu_777UVector9elementAtEi(ptr noundef nonnull align 8 dereferenceable(40) %45, i32 noundef %.03445)
  %47 = tail call noundef double @_ZNK6icu_7717RuleBasedTimeZone17getTransitionTimeEPNS_10TransitionEaii(ptr nonnull align 8 poison, ptr noundef %46, i8 noundef signext %2, i32 noundef %3, i32 noundef %4)
  %48 = fcmp ult double %1, %47
  br i1 %48, label %49, label %._crit_edge

49:                                               ; preds = %.lr.ph
  %50 = add nsw i32 %.03445, -1
  %51 = icmp sgt i32 %.03445, 0
  br i1 %51, label %.lr.ph, label %._crit_edge, !llvm.loop !49

._crit_edge:                                      ; preds = %49, %.lr.ph, %.preheader
  %.034.lcssa = phi i32 [ %31, %.preheader ], [ %.03445, %.lr.ph ], [ -1, %49 ]
  %52 = load ptr, ptr %16, align 8, !tbaa !17
  %53 = tail call noundef ptr @_ZNK6icu_777UVector9elementAtEi(ptr noundef nonnull align 8 dereferenceable(40) %52, i32 noundef %.034.lcssa)
  %54 = getelementptr inbounds nuw i8, ptr %53, i64 16
  br label %55

55:                                               ; preds = %25, %.thread, %._crit_edge, %19
  %.0.in = phi ptr [ %20, %19 ], [ %26, %25 ], [ %44, %.thread ], [ %54, %._crit_edge ]
  %.0 = load ptr, ptr %.0.in, align 8, !tbaa !50
  %.not39 = icmp eq ptr %.0, null
  br i1 %.not39, label %58, label %.thread41

.thread41:                                        ; preds = %39, %55
  %.044 = phi ptr [ %.0, %55 ], [ %40, %39 ]
  %56 = tail call noundef i32 @_ZNK6icu_7712TimeZoneRule12getRawOffsetEv(ptr noundef nonnull align 8 dereferenceable(80) %.044)
  store i32 %56, ptr %5, align 4, !tbaa !48
  %57 = tail call noundef i32 @_ZNK6icu_7712TimeZoneRule13getDSTSavingsEv(ptr noundef nonnull align 8 dereferenceable(80) %.044)
  store i32 %57, ptr %6, align 4, !tbaa !48
  br label %58

58:                                               ; preds = %55, %.thread41, %8, %14
  ret void
}